; ModuleID = 'source-C-CXX/43/226.cpp'
source_filename = "source-C-CXX/43/226.cpp"
target datalayout = "e-m:e-p270:32:32-p271:32:32-p272:64:64-i64:64-f80:128-n8:16:32:64-S128"
target triple = "x86_64-pc-linux-gnu"

%"class.std::ios_base::Init" = type { i8 }
%"class.std::basic_istream" = type { i32 (...)**, i64, %"class.std::basic_ios" }
%"class.std::basic_ios" = type { %"class.std::ios_base", %"class.std::basic_ostream"*, i8, i8, %"class.std::basic_streambuf"*, %"class.std::ctype"*, %"class.std::num_put"*, %"class.std::num_get"* }
%"class.std::ios_base" = type { i32 (...)**, i64, i64, i32, i32, i32, %"struct.std::ios_base::_Callback_list"*, %"struct.std::ios_base::_Words", [8 x %"struct.std::ios_base::_Words"], i32, %"struct.std::ios_base::_Words"*, %"class.std::locale" }
%"struct.std::ios_base::_Callback_list" = type { %"struct.std::ios_base::_Callback_list"*, void (i32, %"class.std::ios_base"*, i32)*, i32, i32 }
%"struct.std::ios_base::_Words" = type { i8*, i64 }
%"class.std::locale" = type { %"class.std::locale::_Impl"* }
%"class.std::locale::_Impl" = type { i32, %"class.std::locale::facet"**, i64, %"class.std::locale::facet"**, i8** }
%"class.std::locale::facet" = type <{ i32 (...)**, i32, [4 x i8] }>
%"class.std::basic_ostream" = type { i32 (...)**, %"class.std::basic_ios" }
%"class.std::basic_streambuf" = type { i32 (...)**, i8*, i8*, i8*, i8*, i8*, i8*, %"class.std::locale" }
%"class.std::ctype" = type <{ %"class.std::locale::facet.base", [4 x i8], %struct.__locale_struct*, i8, [7 x i8], i32*, i32*, i16*, i8, [256 x i8], [256 x i8], i8, [6 x i8] }>
%"class.std::locale::facet.base" = type <{ i32 (...)**, i32 }>
%struct.__locale_struct = type { [13 x %struct.__locale_data*], i16*, i32*, i32*, [13 x i8*] }
%struct.__locale_data = type opaque
%"class.std::num_put" = type { %"class.std::locale::facet.base", [4 x i8] }
%"class.std::num_get" = type { %"class.std::locale::facet.base", [4 x i8] }

@_ZStL8__ioinit = internal global %"class.std::ios_base::Init" zeroinitializer, align 1
@__dso_handle = external hidden global i8
@_ZSt3cin = external global %"class.std::basic_istream", align 8
@_ZSt4cout = external global %"class.std::basic_ostream", align 8
@llvm.global_ctors = appending global [1 x { i32, void ()*, i8* }] [{ i32, void ()*, i8* } { i32 65535, void ()* @_GLOBAL__sub_I_226.cpp, i8* null }]

declare void @_ZNSt8ios_base4InitC1Ev(%"class.std::ios_base::Init"* nonnull align 1 dereferenceable(1)) unnamed_addr #0

; Function Attrs: nounwind
declare void @_ZNSt8ios_base4InitD1Ev(%"class.std::ios_base::Init"* nonnull align 1 dereferenceable(1)) unnamed_addr #1

; Function Attrs: nofree nounwind
declare i32 @__cxa_atexit(void (i8*)*, i8*, i8*) local_unnamed_addr #2

; Function Attrs: mustprogress norecurse sspstrong uwtable
define dso_local i32 @main() local_unnamed_addr #3 {
  %1 = alloca [10 x i32], align 16
  %2 = alloca [6 x i32], align 16
  %3 = bitcast [6 x i32]* %2 to i8*
  call void @llvm.lifetime.start.p0i8(i64 24, i8* nonnull %3) #8
  %4 = getelementptr inbounds [6 x i32], [6 x i32]* %2, i64 0, i64 0
  %5 = call nonnull align 8 dereferenceable(16) %"class.std::basic_istream"* @_ZNSirsERi(%"class.std::basic_istream"* nonnull align 8 dereferenceable(16) @_ZSt3cin, i32* nonnull align 4 dereferenceable(4) %4)
  %6 = getelementptr inbounds [6 x i32], [6 x i32]* %2, i64 0, i64 1
  %7 = call nonnull align 8 dereferenceable(16) %"class.std::basic_istream"* @_ZNSirsERi(%"class.std::basic_istream"* nonnull align 8 dereferenceable(16) @_ZSt3cin, i32* nonnull align 4 dereferenceable(4) %6)
  %8 = getelementptr inbounds [6 x i32], [6 x i32]* %2, i64 0, i64 2
  %9 = call nonnull align 8 dereferenceable(16) %"class.std::basic_istream"* @_ZNSirsERi(%"class.std::basic_istream"* nonnull align 8 dereferenceable(16) @_ZSt3cin, i32* nonnull align 4 dereferenceable(4) %8)
  %10 = getelementptr inbounds [6 x i32], [6 x i32]* %2, i64 0, i64 3
  %11 = call nonnull align 8 dereferenceable(16) %"class.std::basic_istream"* @_ZNSirsERi(%"class.std::basic_istream"* nonnull align 8 dereferenceable(16) @_ZSt3cin, i32* nonnull align 4 dereferenceable(4) %10)
  %12 = getelementptr inbounds [6 x i32], [6 x i32]* %2, i64 0, i64 4
  %13 = call nonnull align 8 dereferenceable(16) %"class.std::basic_istream"* @_ZNSirsERi(%"class.std::basic_istream"* nonnull align 8 dereferenceable(16) @_ZSt3cin, i32* nonnull align 4 dereferenceable(4) %12)
  %14 = getelementptr inbounds [6 x i32], [6 x i32]* %2, i64 0, i64 5
  %15 = call nonnull align 8 dereferenceable(16) %"class.std::basic_istream"* @_ZNSirsERi(%"class.std::basic_istream"* nonnull align 8 dereferenceable(16) @_ZSt3cin, i32* nonnull align 4 dereferenceable(4) %14)
  %16 = bitcast [10 x i32]* %1 to i8*
  br label %17

17:                                               ; preds = %0, %111
  %18 = phi i64 [ 0, %0 ], [ %115, %111 ]
  %19 = getelementptr inbounds [6 x i32], [6 x i32]* %2, i64 0, i64 %18
  %20 = load i32, i32* %19, align 4, !tbaa !5
  call void @llvm.lifetime.start.p0i8(i64 40, i8* nonnull %16) #8
  %21 = icmp eq i32 %20, 0
  br i1 %21, label %83, label %32

22:                                               ; preds = %32
  %23 = trunc i64 %38 to i32
  %24 = icmp eq i32 %23, 0
  br i1 %24, label %83, label %25

25:                                               ; preds = %22
  %26 = and i64 %38, 4294967295
  %27 = add nsw i64 %26, -1
  %28 = and i64 %38, 3
  %29 = icmp ult i64 %27, 3
  br i1 %29, label %67, label %30

30:                                               ; preds = %25
  %31 = sub nsw i64 %26, %28
  br label %41

32:                                               ; preds = %17, %32
  %33 = phi i64 [ %38, %32 ], [ 0, %17 ]
  %34 = phi i32 [ %37, %32 ], [ %20, %17 ]
  %35 = srem i32 %34, 10
  %36 = getelementptr inbounds [10 x i32], [10 x i32]* %1, i64 0, i64 %33
  store i32 %35, i32* %36, align 4, !tbaa !5
  %37 = sdiv i32 %34, 10
  %38 = add nuw i64 %33, 1
  %39 = add i32 %34, 9
  %40 = icmp ult i32 %39, 19
  br i1 %40, label %22, label %32, !llvm.loop !9

41:                                               ; preds = %41, %30
  %42 = phi i64 [ 0, %30 ], [ %64, %41 ]
  %43 = phi i32 [ 0, %30 ], [ %63, %41 ]
  %44 = phi i64 [ %31, %30 ], [ %65, %41 ]
  %45 = mul nsw i32 %43, 10
  %46 = getelementptr inbounds [10 x i32], [10 x i32]* %1, i64 0, i64 %42
  %47 = load i32, i32* %46, align 16, !tbaa !5
  %48 = add nsw i32 %47, %45
  %49 = or i64 %42, 1
  %50 = mul nsw i32 %48, 10
  %51 = getelementptr inbounds [10 x i32], [10 x i32]* %1, i64 0, i64 %49
  %52 = load i32, i32* %51, align 4, !tbaa !5
  %53 = add nsw i32 %52, %50
  %54 = or i64 %42, 2
  %55 = mul nsw i32 %53, 10
  %56 = getelementptr inbounds [10 x i32], [10 x i32]* %1, i64 0, i64 %54
  %57 = load i32, i32* %56, align 8, !tbaa !5
  %58 = add nsw i32 %57, %55
  %59 = or i64 %42, 3
  %60 = mul nsw i32 %58, 10
  %61 = getelementptr inbounds [10 x i32], [10 x i32]* %1, i64 0, i64 %59
  %62 = load i32, i32* %61, align 4, !tbaa !5
  %63 = add nsw i32 %62, %60
  %64 = add nuw nsw i64 %42, 4
  %65 = add i64 %44, -4
  %66 = icmp eq i64 %65, 0
  br i1 %66, label %67, label %41, !llvm.loop !11

67:                                               ; preds = %41, %25
  %68 = phi i32 [ undef, %25 ], [ %63, %41 ]
  %69 = phi i64 [ 0, %25 ], [ %64, %41 ]
  %70 = phi i32 [ 0, %25 ], [ %63, %41 ]
  %71 = icmp eq i64 %28, 0
  br i1 %71, label %83, label %72

72:                                               ; preds = %67, %72
  %73 = phi i64 [ %80, %72 ], [ %69, %67 ]
  %74 = phi i32 [ %79, %72 ], [ %70, %67 ]
  %75 = phi i64 [ %81, %72 ], [ %28, %67 ]
  %76 = mul nsw i32 %74, 10
  %77 = getelementptr inbounds [10 x i32], [10 x i32]* %1, i64 0, i64 %73
  %78 = load i32, i32* %77, align 4, !tbaa !5
  %79 = add nsw i32 %78, %76
  %80 = add nuw nsw i64 %73, 1
  %81 = add i64 %75, -1
  %82 = icmp eq i64 %81, 0
  br i1 %82, label %83, label %72, !llvm.loop !12

83:                                               ; preds = %67, %72, %17, %22
  %84 = phi i32 [ 0, %22 ], [ 0, %17 ], [ %68, %67 ], [ %79, %72 ]
  call void @llvm.lifetime.end.p0i8(i64 40, i8* nonnull %16) #8
  %85 = call nonnull align 8 dereferenceable(8) %"class.std::basic_ostream"* @_ZNSolsEi(%"class.std::basic_ostream"* nonnull align 8 dereferenceable(8) @_ZSt4cout, i32 %84)
  %86 = bitcast %"class.std::basic_ostream"* %85 to i8**
  %87 = load i8*, i8** %86, align 8, !tbaa !14
  %88 = getelementptr i8, i8* %87, i64 -24
  %89 = bitcast i8* %88 to i64*
  %90 = load i64, i64* %89, align 8
  %91 = bitcast %"class.std::basic_ostream"* %85 to i8*
  %92 = add nsw i64 %90, 240
  %93 = getelementptr inbounds i8, i8* %91, i64 %92
  %94 = bitcast i8* %93 to %"class.std::ctype"**
  %95 = load %"class.std::ctype"*, %"class.std::ctype"** %94, align 8, !tbaa !16
  %96 = icmp eq %"class.std::ctype"* %95, null
  br i1 %96, label %97, label %98

97:                                               ; preds = %83
  call void @_ZSt16__throw_bad_castv() #9
  unreachable

98:                                               ; preds = %83
  %99 = getelementptr inbounds %"class.std::ctype", %"class.std::ctype"* %95, i64 0, i32 8
  %100 = load i8, i8* %99, align 8, !tbaa !20
  %101 = icmp eq i8 %100, 0
  br i1 %101, label %105, label %102

102:                                              ; preds = %98
  %103 = getelementptr inbounds %"class.std::ctype", %"class.std::ctype"* %95, i64 0, i32 9, i64 10
  %104 = load i8, i8* %103, align 1, !tbaa !22
  br label %111

105:                                              ; preds = %98
  call void @_ZNKSt5ctypeIcE13_M_widen_initEv(%"class.std::ctype"* nonnull align 8 dereferenceable(570) %95)
  %106 = bitcast %"class.std::ctype"* %95 to i8 (%"class.std::ctype"*, i8)***
  %107 = load i8 (%"class.std::ctype"*, i8)**, i8 (%"class.std::ctype"*, i8)*** %106, align 8, !tbaa !14
  %108 = getelementptr inbounds i8 (%"class.std::ctype"*, i8)*, i8 (%"class.std::ctype"*, i8)** %107, i64 6
  %109 = load i8 (%"class.std::ctype"*, i8)*, i8 (%"class.std::ctype"*, i8)** %108, align 8
  %110 = call signext i8 %109(%"class.std::ctype"* nonnull align 8 dereferenceable(570) %95, i8 signext 10)
  br label %111

111:                                              ; preds = %102, %105
  %112 = phi i8 [ %104, %102 ], [ %110, %105 ]
  %113 = call nonnull align 8 dereferenceable(8) %"class.std::basic_ostream"* @_ZNSo3putEc(%"class.std::basic_ostream"* nonnull align 8 dereferenceable(8) %85, i8 signext %112)
  %114 = call nonnull align 8 dereferenceable(8) %"class.std::basic_ostream"* @_ZNSo5flushEv(%"class.std::basic_ostream"* nonnull align 8 dereferenceable(8) %113)
  %115 = add nuw nsw i64 %18, 1
  %116 = icmp eq i64 %115, 6
  br i1 %116, label %117, label %17, !llvm.loop !23

117:                                              ; preds = %111
  call void @llvm.lifetime.end.p0i8(i64 24, i8* nonnull %3) #8
  ret i32 0
}

; Function Attrs: argmemonly mustprogress nofree nosync nounwind willreturn
declare void @llvm.lifetime.start.p0i8(i64 immarg, i8* nocapture) #4

declare nonnull align 8 dereferenceable(16) %"class.std::basic_istream"* @_ZNSirsERi(%"class.std::basic_istream"* nonnull align 8 dereferenceable(16), i32* nonnull align 4 dereferenceable(4)) local_unnamed_addr #0

declare nonnull align 8 dereferenceable(8) %"class.std::basic_ostream"* @_ZNSolsEi(%"class.std::basic_ostream"* nonnull align 8 dereferenceable(8), i32) local_unnamed_addr #0

; Function Attrs: mustprogress nofree nosync nounwind readnone sspstrong uwtable willreturn
define dso_local i32 @_Z5fanxui(i32 %0) local_unnamed_addr #5 {
  %2 = alloca [10 x i32], align 16
  %3 = bitcast [10 x i32]* %2 to i8*
  call void @llvm.lifetime.start.p0i8(i64 40, i8* nonnull %3) #8
  %4 = icmp eq i32 %0, 0
  br i1 %4, label %66, label %15

5:                                                ; preds = %15
  %6 = trunc i64 %21 to i32
  %7 = icmp eq i32 %6, 0
  br i1 %7, label %66, label %8

8:                                                ; preds = %5
  %9 = and i64 %21, 4294967295
  %10 = add nsw i64 %9, -1
  %11 = and i64 %21, 3
  %12 = icmp ult i64 %10, 3
  br i1 %12, label %50, label %13

13:                                               ; preds = %8
  %14 = sub nsw i64 %9, %11
  br label %24

15:                                               ; preds = %1, %15
  %16 = phi i64 [ %21, %15 ], [ 0, %1 ]
  %17 = phi i32 [ %20, %15 ], [ %0, %1 ]
  %18 = srem i32 %17, 10
  %19 = getelementptr inbounds [10 x i32], [10 x i32]* %2, i64 0, i64 %16
  store i32 %18, i32* %19, align 4, !tbaa !5
  %20 = sdiv i32 %17, 10
  %21 = add nuw i64 %16, 1
  %22 = add i32 %17, 9
  %23 = icmp ult i32 %22, 19
  br i1 %23, label %5, label %15, !llvm.loop !9

24:                                               ; preds = %24, %13
  %25 = phi i64 [ 0, %13 ], [ %47, %24 ]
  %26 = phi i32 [ 0, %13 ], [ %46, %24 ]
  %27 = phi i64 [ %14, %13 ], [ %48, %24 ]
  %28 = mul nsw i32 %26, 10
  %29 = getelementptr inbounds [10 x i32], [10 x i32]* %2, i64 0, i64 %25
  %30 = load i32, i32* %29, align 16, !tbaa !5
  %31 = add nsw i32 %30, %28
  %32 = or i64 %25, 1
  %33 = mul nsw i32 %31, 10
  %34 = getelementptr inbounds [10 x i32], [10 x i32]* %2, i64 0, i64 %32
  %35 = load i32, i32* %34, align 4, !tbaa !5
  %36 = add nsw i32 %35, %33
  %37 = or i64 %25, 2
  %38 = mul nsw i32 %36, 10
  %39 = getelementptr inbounds [10 x i32], [10 x i32]* %2, i64 0, i64 %37
  %40 = load i32, i32* %39, align 8, !tbaa !5
  %41 = add nsw i32 %40, %38
  %42 = or i64 %25, 3
  %43 = mul nsw i32 %41, 10
  %44 = getelementptr inbounds [10 x i32], [10 x i32]* %2, i64 0, i64 %42
  %45 = load i32, i32* %44, align 4, !tbaa !5
  %46 = add nsw i32 %45, %43
  %47 = add nuw nsw i64 %25, 4
  %48 = add i64 %27, -4
  %49 = icmp eq i64 %48, 0
  br i1 %49, label %50, label %24, !llvm.loop !11

50:                                               ; preds = %24, %8
  %51 = phi i32 [ undef, %8 ], [ %46, %24 ]
  %52 = phi i64 [ 0, %8 ], [ %47, %24 ]
  %53 = phi i32 [ 0, %8 ], [ %46, %24 ]
  %54 = icmp eq i64 %11, 0
  br i1 %54, label %66, label %55

55:                                               ; preds = %50, %55
  %56 = phi i64 [ %63, %55 ], [ %52, %50 ]
  %57 = phi i32 [ %62, %55 ], [ %53, %50 ]
  %58 = phi i64 [ %64, %55 ], [ %11, %50 ]
  %59 = mul nsw i32 %57, 10
  %60 = getelementptr inbounds [10 x i32], [10 x i32]* %2, i64 0, i64 %56
  %61 = load i32, i32* %60, align 4, !tbaa !5
  %62 = add nsw i32 %61, %59
  %63 = add nuw nsw i64 %56, 1
  %64 = add i64 %58, -1
  %65 = icmp eq i64 %64, 0
  br i1 %65, label %66, label %55, !llvm.loop !24

66:                                               ; preds = %50, %55, %1, %5
  %67 = phi i32 [ 0, %5 ], [ 0, %1 ], [ %51, %50 ], [ %62, %55 ]
  call void @llvm.lifetime.end.p0i8(i64 40, i8* nonnull %3) #8
  ret i32 %67
}

; Function Attrs: argmemonly mustprogress nofree nosync nounwind willreturn
declare void @llvm.lifetime.end.p0i8(i64 immarg, i8* nocapture) #4

declare nonnull align 8 dereferenceable(8) %"class.std::basic_ostream"* @_ZNSo3putEc(%"class.std::basic_ostream"* nonnull align 8 dereferenceable(8), i8 signext) local_unnamed_addr #0

declare nonnull align 8 dereferenceable(8) %"class.std::basic_ostream"* @_ZNSo5flushEv(%"class.std::basic_ostream"* nonnull align 8 dereferenceable(8)) local_unnamed_addr #0

; Function Attrs: noreturn
declare void @_ZSt16__throw_bad_castv() local_unnamed_addr #6

declare void @_ZNKSt5ctypeIcE13_M_widen_initEv(%"class.std::ctype"* nonnull align 8 dereferenceable(570)) local_unnamed_addr #0

; Function Attrs: sspstrong uwtable
define internal void @_GLOBAL__sub_I_226.cpp() #7 section ".text.startup" {
  tail call void @_ZNSt8ios_base4InitC1Ev(%"class.std::ios_base::Init"* nonnull align 1 dereferenceable(1) @_ZStL8__ioinit)
  %1 = tail call i32 @__cxa_atexit(void (i8*)* bitcast (void (%"class.std::ios_base::Init"*)* @_ZNSt8ios_base4InitD1Ev to void (i8*)*), i8* getelementptr inbounds (%"class.std::ios_base::Init", %"class.std::ios_base::Init"* @_ZStL8__ioinit, i64 0, i32 0), i8* nonnull @__dso_handle) #8
  ret void
}


!llvm.module.flags = !{!0, !1, !2, !3}
!llvm.ident = !{!4}

!0 = !{i32 1, !"wchar_size", i32 4}
!1 = !{i32 7, !"PIC Level", i32 2}
!2 = !{i32 7, !"PIE Level", i32 2}
!3 = !{i32 7, !"uwtable", i32 1}
!4 = !{!"clang version 13.0.0"}
!5 = !{!6, !6, i64 0}
!6 = !{!"int", !7, i64 0}
!7 = !{!"omnipotent char", !8, i64 0}
!8 = !{!"Simple C++ TBAA"}
!9 = distinct !{!9, !10}
!10 = !{!"llvm.loop.mustprogress"}
!11 = distinct !{!11, !10}
!12 = distinct !{!12, !13}
!13 = !{!"llvm.loop.unroll.disable"}
!14 = !{!15, !15, i64 0}
!15 = !{!"vtable pointer", !8, i64 0}
!16 = !{!17, !18, i64 240}
!17 = !{!"_ZTSSt9basic_iosIcSt11char_traitsIcEE", !18, i64 216, !7, i64 224, !19, i64 225, !18, i64 232, !18, i64 240, !18, i64 248, !18, i64 256}
!18 = !{!"any pointer", !7, i64 0}
!19 = !{!"bool", !7, i64 0}
!20 = !{!21, !7, i64 56}
!21 = !{!"_ZTSSt5ctypeIcE", !18, i64 16, !19, i64 24, !18, i64 32, !18, i64 40, !18, i64 48, !7, i64 56, !7, i64 57, !7, i64 313, !7, i64 569}
!22 = !{!7, !7, i64 0}
!23 = distinct !{!23, !10}
!24 = distinct !{!24, !13}
